target datalayout = "e-m:e-p270:32:32-p271:32:32-p272:64:64-i64:64-i128:128-f80:128-n8:16:32:64-S128"
target triple = "x86_64-pc-linux-gnu"

; Function Attrs: mustprogress nounwind uwtable
define void @u_versionToString_77(ptr noundef %0, ptr noundef %1) #0 {
  %3 = alloca ptr, align 8
  %4 = alloca ptr, align 8
  %5 = alloca i16, align 2
  %6 = alloca i16, align 2
  %7 = alloca i8, align 1
  %8 = alloca i32, align 4
  store ptr %0, ptr %3, align 8, !tbaa !17
  store ptr %1, ptr %4, align 8, !tbaa !17
  call void @llvm.lifetime.start.p0(i64 2, ptr %5) #14
  call void @llvm.lifetime.start.p0(i64 2, ptr %6) #14
  call void @llvm.lifetime.start.p0(i64 1, ptr %7) #14
  %9 = load ptr, ptr %4, align 8, !tbaa !17
  %10 = icmp eq ptr %9, null
  br i1 %10, label %11, label %12

11:                                               ; preds = %2
  store i32 1, ptr %8, align 4
  br label %143

12:                                               ; preds = %2
  %13 = load ptr, ptr %3, align 8, !tbaa !17
  %14 = icmp eq ptr %13, null
  br i1 %14, label %15, label %18

15:                                               ; preds = %12
  %16 = load ptr, ptr %4, align 8, !tbaa !17
  %17 = getelementptr inbounds i8, ptr %16, i64 0
  store i8 0, ptr %17, align 1, !tbaa !28
  store i32 1, ptr %8, align 4
  br label %143

18:                                               ; preds = %12
  store i16 4, ptr %5, align 2, !tbaa !72
  br label %19

19:                                               ; preds = %36, %18
  %20 = load i16, ptr %5, align 2, !tbaa !72
  %21 = zext i16 %20 to i32
  %22 = icmp sgt i32 %21, 0
  br i1 %22, label %23, label %33

23:                                               ; preds = %19
  %24 = load ptr, ptr %3, align 8, !tbaa !17
  %25 = load i16, ptr %5, align 2, !tbaa !72
  %26 = zext i16 %25 to i32
  %27 = sub nsw i32 %26, 1
  %28 = sext i32 %27 to i64
  %29 = getelementptr inbounds i8, ptr %24, i64 %28
  %30 = load i8, ptr %29, align 1, !tbaa !28
  %31 = zext i8 %30 to i32
  %32 = icmp eq i32 %31, 0
  br label %33

33:                                               ; preds = %23, %19
  %34 = phi i1 [ false, %19 ], [ %32, %23 ]
  br i1 %34, label %35, label %39

35:                                               ; preds = %33
  br label %36

36:                                               ; preds = %35
  %37 = load i16, ptr %5, align 2, !tbaa !72
  %38 = add i16 %37, -1
  store i16 %38, ptr %5, align 2, !tbaa !72
  br label %19, !llvm.loop !78

39:                                               ; preds = %33
  %40 = load i16, ptr %5, align 2, !tbaa !72
  %41 = zext i16 %40 to i32
  %42 = icmp sle i32 %41, 1
  br i1 %42, label %43, label %44

43:                                               ; preds = %39
  store i16 2, ptr %5, align 2, !tbaa !72
  br label %44

44:                                               ; preds = %43, %39
  %45 = load ptr, ptr %3, align 8, !tbaa !17
  %46 = getelementptr inbounds i8, ptr %45, i64 0
  %47 = load i8, ptr %46, align 1, !tbaa !28
  store i8 %47, ptr %7, align 1, !tbaa !28
  %48 = load i8, ptr %7, align 1, !tbaa !28
  %49 = zext i8 %48 to i32
  %50 = icmp sge i32 %49, 100
  br i1 %50, label %51, label %63

51:                                               ; preds = %44
  %52 = load i8, ptr %7, align 1, !tbaa !28
  %53 = zext i8 %52 to i32
  %54 = sdiv i32 %53, 100
  %55 = add nsw i32 48, %54
  %56 = trunc i32 %55 to i8
  %57 = load ptr, ptr %4, align 8, !tbaa !17
  %58 = getelementptr inbounds nuw i8, ptr %57, i32 1
  store ptr %58, ptr %4, align 8, !tbaa !17
  store i8 %56, ptr %57, align 1, !tbaa !28
  %59 = load i8, ptr %7, align 1, !tbaa !28
  %60 = zext i8 %59 to i32
  %61 = srem i32 %60, 100
  %62 = trunc i32 %61 to i8
  store i8 %62, ptr %7, align 1, !tbaa !28
  br label %63

63:                                               ; preds = %51, %44
  %64 = load i8, ptr %7, align 1, !tbaa !28
  %65 = zext i8 %64 to i32
  %66 = icmp sge i32 %65, 10
  br i1 %66, label %67, label %79

67:                                               ; preds = %63
  %68 = load i8, ptr %7, align 1, !tbaa !28
  %69 = zext i8 %68 to i32
  %70 = sdiv i32 %69, 10
  %71 = add nsw i32 48, %70
  %72 = trunc i32 %71 to i8
  %73 = load ptr, ptr %4, align 8, !tbaa !17
  %74 = getelementptr inbounds nuw i8, ptr %73, i32 1
  store ptr %74, ptr %4, align 8, !tbaa !17
  store i8 %72, ptr %73, align 1, !tbaa !28
  %75 = load i8, ptr %7, align 1, !tbaa !28
  %76 = zext i8 %75 to i32
  %77 = srem i32 %76, 10
  %78 = trunc i32 %77 to i8
  store i8 %78, ptr %7, align 1, !tbaa !28
  br label %79

79:                                               ; preds = %67, %63
  %80 = load i8, ptr %7, align 1, !tbaa !28
  %81 = zext i8 %80 to i32
  %82 = add nsw i32 48, %81
  %83 = trunc i32 %82 to i8
  %84 = load ptr, ptr %4, align 8, !tbaa !17
  %85 = getelementptr inbounds nuw i8, ptr %84, i32 1
  store ptr %85, ptr %4, align 8, !tbaa !17
  store i8 %83, ptr %84, align 1, !tbaa !28
  store i16 1, ptr %6, align 2, !tbaa !72
  br label %86

86:                                               ; preds = %138, %79
  %87 = load i16, ptr %6, align 2, !tbaa !72
  %88 = zext i16 %87 to i32
  %89 = load i16, ptr %5, align 2, !tbaa !72
  %90 = zext i16 %89 to i32
  %91 = icmp slt i32 %88, %90
  br i1 %91, label %92, label %141

92:                                               ; preds = %86
  %93 = load ptr, ptr %4, align 8, !tbaa !17
  %94 = getelementptr inbounds nuw i8, ptr %93, i32 1
  store ptr %94, ptr %4, align 8, !tbaa !17
  store i8 46, ptr %93, align 1, !tbaa !28
  %95 = load ptr, ptr %3, align 8, !tbaa !17
  %96 = load i16, ptr %6, align 2, !tbaa !72
  %97 = zext i16 %96 to i64
  %98 = getelementptr inbounds nuw i8, ptr %95, i64 %97
  %99 = load i8, ptr %98, align 1, !tbaa !28
  store i8 %99, ptr %7, align 1, !tbaa !28
  %100 = load i8, ptr %7, align 1, !tbaa !28
  %101 = zext i8 %100 to i32
  %102 = icmp sge i32 %101, 100
  br i1 %102, label %103, label %115

103:                                              ; preds = %92
  %104 = load i8, ptr %7, align 1, !tbaa !28
  %105 = zext i8 %104 to i32
  %106 = sdiv i32 %105, 100
  %107 = add nsw i32 48, %106
  %108 = trunc i32 %107 to i8
  %109 = load ptr, ptr %4, align 8, !tbaa !17
  %110 = getelementptr inbounds nuw i8, ptr %109, i32 1
  store ptr %110, ptr %4, align 8, !tbaa !17
  store i8 %108, ptr %109, align 1, !tbaa !28
  %111 = load i8, ptr %7, align 1, !tbaa !28
  %112 = zext i8 %111 to i32
  %113 = srem i32 %112, 100
  %114 = trunc i32 %113 to i8
  store i8 %114, ptr %7, align 1, !tbaa !28
  br label %115

115:                                              ; preds = %103, %92
  %116 = load i8, ptr %7, align 1, !tbaa !28
  %117 = zext i8 %116 to i32
  %118 = icmp sge i32 %117, 10
  br i1 %118, label %119, label %131

119:                                              ; preds = %115
  %120 = load i8, ptr %7, align 1, !tbaa !28
  %121 = zext i8 %120 to i32
  %122 = sdiv i32 %121, 10
  %123 = add nsw i32 48, %122
  %124 = trunc i32 %123 to i8
  %125 = load ptr, ptr %4, align 8, !tbaa !17
  %126 = getelementptr inbounds nuw i8, ptr %125, i32 1
  store ptr %126, ptr %4, align 8, !tbaa !17
  store i8 %124, ptr %125, align 1, !tbaa !28
  %127 = load i8, ptr %7, align 1, !tbaa !28
  %128 = zext i8 %127 to i32
  %129 = srem i32 %128, 10
  %130 = trunc i32 %129 to i8
  store i8 %130, ptr %7, align 1, !tbaa !28
  br label %131

131:                                              ; preds = %119, %115
  %132 = load i8, ptr %7, align 1, !tbaa !28
  %133 = zext i8 %132 to i32
  %134 = add nsw i32 48, %133
  %135 = trunc i32 %134 to i8
  %136 = load ptr, ptr %4, align 8, !tbaa !17
  %137 = getelementptr inbounds nuw i8, ptr %136, i32 1
  store ptr %137, ptr %4, align 8, !tbaa !17
  store i8 %135, ptr %136, align 1, !tbaa !28
  br label %138

138:                                              ; preds = %131
  %139 = load i16, ptr %6, align 2, !tbaa !72
  %140 = add i16 %139, 1
  store i16 %140, ptr %6, align 2, !tbaa !72
  br label %86, !llvm.loop !79

141:                                              ; preds = %86
  %142 = load ptr, ptr %4, align 8, !tbaa !17
  store i8 0, ptr %142, align 1, !tbaa !28
  store i32 0, ptr %8, align 4
  br label %143

143:                                              ; preds = %141, %15, %11
  call void @llvm.lifetime.end.p0(i64 1, ptr %7) #14
  call void @llvm.lifetime.end.p0(i64 2, ptr %6) #14
  call void @llvm.lifetime.end.p0(i64 2, ptr %5) #14
  %144 = load i32, ptr %8, align 4
  switch i32 %144, label %146 [
    i32 0, label %145
    i32 1, label %145
  ]

145:                                              ; preds = %143, %143
  ret void

146:                                              ; preds = %143
  unreachable
}