; Function Attrs: mustprogress nofree norecurse nosync nounwind memory(argmem: readwrite) uwtable
define void @u_versionToString_77(ptr noundef readonly %0, ptr noundef writeonly %1) local_unnamed_addr #28 {
  %3 = icmp eq ptr %1, null
  br i1 %3, label %47, label %4

4:                                                ; preds = %2
  %5 = icmp eq ptr %0, null
  br i1 %5, label %.sink.split, label %.preheader

.preheader:                                       ; preds = %4
  %invariant.gep = getelementptr i8, ptr %0, i64 -1
  br label %6

6:                                                ; preds = %.preheader, %10
  %.03648 = phi i16 [ 4, %.preheader ], [ %11, %10 ]
  %7 = zext i16 %.03648 to i64
  %gep = getelementptr i8, ptr %invariant.gep, i64 %7
  %8 = load i8, ptr %gep, align 1, !tbaa !21
  %9 = icmp eq i8 %8, 0
  br i1 %9, label %10, label %.critedge

10:                                               ; preds = %6
  %11 = add nsw i16 %.03648, -1
  %.not = icmp eq i16 %11, 0
  br i1 %.not, label %.critedge, label %6, !llvm.loop !50

.critedge:                                        ; preds = %10, %6
  %.036.lcssa = phi i16 [ 0, %10 ], [ %.03648, %6 ]
  %spec.store.select = tail call i16 @llvm.umax.i16(i16 %.036.lcssa, i16 2)
  %12 = load i8, ptr %0, align 1, !tbaa !21
  %13 = icmp ugt i8 %12, 99
  br i1 %13, label %14, label %19

14:                                               ; preds = %.critedge
  %15 = udiv i8 %12, 100
  %16 = or disjoint i8 %15, 48
  %17 = getelementptr inbounds nuw i8, ptr %1, i64 1
  store i8 %16, ptr %1, align 1, !tbaa !21
  %18 = urem i8 %12, 100
  br label %19

19:                                               ; preds = %14, %.critedge
  %.037 = phi ptr [ %17, %14 ], [ %1, %.critedge ]
  %.0 = phi i8 [ %18, %14 ], [ %12, %.critedge ]
  %20 = icmp samesign ugt i8 %.0, 9
  br i1 %20, label %21, label %26

21:                                               ; preds = %19
  %22 = udiv i8 %.0, 10
  %23 = or disjoint i8 %22, 48
  %24 = getelementptr inbounds nuw i8, ptr %.037, i64 1
  store i8 %23, ptr %.037, align 1, !tbaa !21
  %25 = urem i8 %.0, 10
  br label %26

26:                                               ; preds = %21, %19
  %.138 = phi ptr [ %24, %21 ], [ %.037, %19 ]
  %.1 = phi i8 [ %25, %21 ], [ %.0, %19 ]
  %27 = or disjoint i8 %.1, 48
  store i8 %27, ptr %.138, align 1, !tbaa !21
  %.23949 = getelementptr inbounds nuw i8, ptr %.138, i64 1
  %wide.trip.count = zext i16 %spec.store.select to i64
  br label %28

28:                                               ; preds = %26, %45
  %indvars.iv = phi i64 [ 1, %26 ], [ %indvars.iv.next, %45 ]
  %.23952 = phi ptr [ %.23949, %26 ], [ %.239, %45 ]
  %.138.pn50 = phi ptr [ %.138, %26 ], [ %.4, %45 ]
  %29 = getelementptr inbounds nuw i8, ptr %.138.pn50, i64 2
  store i8 46, ptr %.23952, align 1, !tbaa !21
  %30 = getelementptr inbounds nuw i8, ptr %0, i64 %indvars.iv
  %31 = load i8, ptr %30, align 1, !tbaa !21
  %32 = icmp ugt i8 %31, 99
  br i1 %32, label %33, label %38

33:                                               ; preds = %28
  %34 = udiv i8 %31, 100
  %35 = or disjoint i8 %34, 48
  %36 = getelementptr inbounds nuw i8, ptr %.138.pn50, i64 3
  store i8 %35, ptr %29, align 1, !tbaa !21
  %37 = urem i8 %31, 100
  br label %38

38:                                               ; preds = %33, %28
  %.340 = phi ptr [ %36, %33 ], [ %29, %28 ]
  %.2 = phi i8 [ %37, %33 ], [ %31, %28 ]
  %39 = icmp samesign ugt i8 %.2, 9
  br i1 %39, label %40, label %45

40:                                               ; preds = %38
  %41 = udiv i8 %.2, 10
  %42 = or disjoint i8 %41, 48
  %43 = getelementptr inbounds nuw i8, ptr %.340, i64 1
  store i8 %42, ptr %.340, align 1, !tbaa !21
  %44 = urem i8 %.2, 10
  br label %45

45:                                               ; preds = %40, %38
  %.4 = phi ptr [ %43, %40 ], [ %.340, %38 ]
  %.3 = phi i8 [ %44, %40 ], [ %.2, %38 ]
  %46 = or disjoint i8 %.3, 48
  store i8 %46, ptr %.4, align 1, !tbaa !21
  %indvars.iv.next = add nuw nsw i64 %indvars.iv, 1
  %.239 = getelementptr inbounds nuw i8, ptr %.4, i64 1
  %exitcond.not = icmp eq i64 %indvars.iv.next, %wide.trip.count
  br i1 %exitcond.not, label %.sink.split, label %28, !llvm.loop !51

.sink.split:                                      ; preds = %45, %4
  %.239.lcssa.sink = phi ptr [ %1, %4 ], [ %.239, %45 ]
  store i8 0, ptr %.239.lcssa.sink, align 1, !tbaa !21
  br label %47

47:                                               ; preds = %.sink.split, %2
  ret void
}